target datalayout = "e-m:e-p270:32:32-p271:32:32-p272:64:64-i64:64-i128:128-f80:128-n8:16:32:64-S128"
target triple = "x86_64-pc-linux-gnu"

@VP8Transform = hidden global ptr null, align 8

; Function Attrs: nounwind uwtable
define internal void @TransformUV_C(ptr noalias noundef %0, ptr noalias noundef %1) #0 {
  %3 = alloca ptr, align 8
  %4 = alloca ptr, align 8
  store ptr %0, ptr %3, align 8, !tbaa !7
  store ptr %1, ptr %4, align 8, !tbaa !16
  %5 = load ptr, ptr @VP8Transform, align 8, !tbaa !3
  %6 = load ptr, ptr %3, align 8, !tbaa !7
  %7 = getelementptr inbounds i16, ptr %6, i64 0
  %8 = load ptr, ptr %4, align 8, !tbaa !16
  call void %5(ptr noundef %7, ptr noundef %8, i32 noundef 1)
  %9 = load ptr, ptr @VP8Transform, align 8, !tbaa !3
  %10 = load ptr, ptr %3, align 8, !tbaa !7
  %11 = getelementptr inbounds i16, ptr %10, i64 32
  %12 = load ptr, ptr %4, align 8, !tbaa !16
  %13 = getelementptr inbounds i8, ptr %12, i64 128
  call void %9(ptr noundef %11, ptr noundef %13, i32 noundef 1)
  ret void
}