; Function Attrs: nounwind uwtable
define internal void @TransformUV_C(ptr noalias noundef %0, ptr noalias noundef %1) #0 {
  %3 = load ptr, ptr @VP8Transform, align 8, !tbaa !3
  tail call void %3(ptr noundef %0, ptr noundef %1, i32 noundef 1) #12
  %4 = load ptr, ptr @VP8Transform, align 8, !tbaa !3
  %5 = getelementptr inbounds nuw i8, ptr %0, i64 64
  %6 = getelementptr inbounds nuw i8, ptr %1, i64 128
  tail call void %4(ptr noundef nonnull %5, ptr noundef nonnull %6, i32 noundef 1) #12
  ret void
}